target datalayout = "e-m:e-p270:32:32-p271:32:32-p272:64:64-i64:64-i128:128-f80:128-n8:16:32:64-S128"
target triple = "x86_64-pc-linux-gnu"

%struct.AVProbeData = type { ptr, ptr, i32, ptr }

; Function Attrs: nounwind uwtable
define internal i32 @au_probe(ptr noundef %0) #0 {
  %2 = alloca i32, align 4
  %3 = alloca ptr, align 8
  store ptr %0, ptr %3, align 8, !tbaa !4
  %4 = load ptr, ptr %3, align 8, !tbaa !4
  %5 = getelementptr inbounds nuw %struct.AVProbeData, ptr %4, i32 0, i32 2
  %6 = load i32, ptr %5, align 8, !tbaa !9
  %7 = icmp slt i32 %6, 24
  br i1 %7, label %49, label %8

8:                                                ; preds = %1
  %9 = load ptr, ptr %3, align 8, !tbaa !4
  %10 = getelementptr inbounds nuw %struct.AVProbeData, ptr %9, i32 0, i32 1
  %11 = load ptr, ptr %10, align 8, !tbaa !13
  %12 = load i32, ptr %11, align 1, !tbaa !14
  %13 = icmp ne i32 %12, 1684960046
  br i1 %13, label %49, label %14

14:                                               ; preds = %8
  %15 = load ptr, ptr %3, align 8, !tbaa !4
  %16 = getelementptr inbounds nuw %struct.AVProbeData, ptr %15, i32 0, i32 1
  %17 = load ptr, ptr %16, align 8, !tbaa !13
  %18 = getelementptr inbounds i8, ptr %17, i64 4
  %19 = load i32, ptr %18, align 1, !tbaa !14
  %20 = icmp eq i32 %19, 0
  br i1 %20, label %49, label %21

21:                                               ; preds = %14
  %22 = load ptr, ptr %3, align 8, !tbaa !4
  %23 = getelementptr inbounds nuw %struct.AVProbeData, ptr %22, i32 0, i32 1
  %24 = load ptr, ptr %23, align 8, !tbaa !13
  %25 = getelementptr inbounds i8, ptr %24, i64 8
  %26 = load i32, ptr %25, align 1, !tbaa !14
  %27 = icmp eq i32 %26, 0
  br i1 %27, label %49, label %28

28:                                               ; preds = %21
  %29 = load ptr, ptr %3, align 8, !tbaa !4
  %30 = getelementptr inbounds nuw %struct.AVProbeData, ptr %29, i32 0, i32 1
  %31 = load ptr, ptr %30, align 8, !tbaa !13
  %32 = getelementptr inbounds i8, ptr %31, i64 12
  %33 = load i32, ptr %32, align 1, !tbaa !14
  %34 = icmp eq i32 %33, 0
  br i1 %34, label %49, label %35

35:                                               ; preds = %28
  %36 = load ptr, ptr %3, align 8, !tbaa !4
  %37 = getelementptr inbounds nuw %struct.AVProbeData, ptr %36, i32 0, i32 1
  %38 = load ptr, ptr %37, align 8, !tbaa !13
  %39 = getelementptr inbounds i8, ptr %38, i64 16
  %40 = load i32, ptr %39, align 1, !tbaa !14
  %41 = icmp eq i32 %40, 0
  br i1 %41, label %49, label %42

42:                                               ; preds = %35
  %43 = load ptr, ptr %3, align 8, !tbaa !4
  %44 = getelementptr inbounds nuw %struct.AVProbeData, ptr %43, i32 0, i32 1
  %45 = load ptr, ptr %44, align 8, !tbaa !13
  %46 = getelementptr inbounds i8, ptr %45, i64 20
  %47 = load i32, ptr %46, align 1, !tbaa !14
  %48 = icmp eq i32 %47, 0
  br i1 %48, label %49, label %50

49:                                               ; preds = %42, %35, %28, %21, %14, %8, %1
  store i32 0, ptr %2, align 4
  br label %51

50:                                               ; preds = %42
  store i32 100, ptr %2, align 4
  br label %51

51:                                               ; preds = %50, %49
  %52 = load i32, ptr %2, align 4
  ret i32 %52
}