; Function Attrs: mustprogress nofree norecurse nosync nounwind willreturn memory(read, inaccessiblemem: none) uwtable
define internal range(i32 0, 101) i32 @au_probe(ptr noundef readonly captures(none) %0) #0 {
  %2 = getelementptr inbounds nuw i8, ptr %0, i64 16
  %3 = load i32, ptr %2, align 8, !tbaa !4
  %4 = icmp slt i32 %3, 24
  br i1 %4, label %29, label %5

5:                                                ; preds = %1
  %6 = getelementptr inbounds nuw i8, ptr %0, i64 8
  %7 = load ptr, ptr %6, align 8, !tbaa !11
  %8 = load i32, ptr %7, align 1, !tbaa !12
  %.not = icmp eq i32 %8, 1684960046
  br i1 %.not, label %9, label %29

9:                                                ; preds = %5
  %10 = getelementptr inbounds nuw i8, ptr %7, i64 4
  %11 = load i32, ptr %10, align 1, !tbaa !12
  %12 = icmp eq i32 %11, 0
  br i1 %12, label %29, label %13

13:                                               ; preds = %9
  %14 = getelementptr inbounds nuw i8, ptr %7, i64 8
  %15 = load i32, ptr %14, align 1, !tbaa !12
  %16 = icmp eq i32 %15, 0
  br i1 %16, label %29, label %17

17:                                               ; preds = %13
  %18 = getelementptr inbounds nuw i8, ptr %7, i64 12
  %19 = load i32, ptr %18, align 1, !tbaa !12
  %20 = icmp eq i32 %19, 0
  br i1 %20, label %29, label %21

21:                                               ; preds = %17
  %22 = getelementptr inbounds nuw i8, ptr %7, i64 16
  %23 = load i32, ptr %22, align 1, !tbaa !12
  %24 = icmp eq i32 %23, 0
  br i1 %24, label %29, label %25

25:                                               ; preds = %21
  %26 = getelementptr inbounds nuw i8, ptr %7, i64 20
  %27 = load i32, ptr %26, align 1, !tbaa !12
  %28 = icmp eq i32 %27, 0
  %spec.select = select i1 %28, i32 0, i32 100
  br label %29

29:                                               ; preds = %25, %1, %5, %9, %13, %17, %21
  %.0 = phi i32 [ 0, %21 ], [ 0, %17 ], [ 0, %13 ], [ 0, %9 ], [ 0, %5 ], [ 0, %1 ], [ %spec.select, %25 ]
  ret i32 %.0
}